; Function Attrs: nofree norecurse nosync nounwind memory(read, argmem: readwrite, inaccessiblemem: none) uwtable
define range(i32 -1, 1) i32 @pmix_hash_table_get_next_key_ptr(ptr noundef readonly captures(none) %0, ptr noundef writeonly captures(none) %1, ptr noundef writeonly captures(none) %2, ptr noundef writeonly captures(none) %3, ptr noundef %4, ptr noundef writeonly captures(none) %5) local_unnamed_addr #2 {
  %7 = getelementptr i8, ptr %0, i64 128
  %.val = load ptr, ptr %7, align 8, !tbaa !17
  %8 = getelementptr i8, ptr %0, i64 136
  %.val6 = load i64, ptr %8, align 8, !tbaa !11
  %9 = icmp eq ptr %4, null
  br i1 %9, label %16, label %10

10:                                               ; preds = %6
  %11 = ptrtoint ptr %4 to i64
  %12 = ptrtoint ptr %.val to i64
  %13 = sub i64 %11, %12
  %14 = sdiv exact i64 %13, 40
  %15 = add nsw i64 %14, 1
  br label %16

16:                                               ; preds = %10, %6
  %17 = phi i64 [ %15, %10 ], [ 0, %6 ]
  %18 = icmp ult i64 %17, %.val6
  br i1 %18, label %.critedge.i, label %pmix_hash_table_get_next_elt.exit.thread

19:                                               ; preds = %.critedge.i
  %20 = add i64 %.0151.i, 1
  %exitcond.not.i = icmp eq i64 %20, %.val6
  br i1 %exitcond.not.i, label %pmix_hash_table_get_next_elt.exit.thread, label %.critedge.i, !llvm.loop !45

.critedge.i:                                      ; preds = %16, %19
  %.0151.i = phi i64 [ %20, %19 ], [ %17, %16 ]
  %21 = getelementptr inbounds nuw %struct.pmix_hash_element_t, ptr %.val, i64 %.0151.i
  %22 = load i32, ptr %21, align 8, !tbaa !18
  %.not.i = icmp eq i32 %22, 0
  br i1 %.not.i, label %19, label %pmix_hash_table_get_next_elt.exit

pmix_hash_table_get_next_elt.exit:                ; preds = %.critedge.i
  %23 = getelementptr inbounds nuw i8, ptr %21, i64 8
  %24 = load ptr, ptr %23, align 8, !tbaa !36
  store ptr %24, ptr %1, align 8, !tbaa !37
  %25 = getelementptr inbounds nuw i8, ptr %21, i64 16
  %26 = load i64, ptr %25, align 8, !tbaa !36
  store i64 %26, ptr %2, align 8, !tbaa !46
  %27 = getelementptr inbounds nuw i8, ptr %21, i64 32
  %28 = load ptr, ptr %27, align 8, !tbaa !24
  store ptr %28, ptr %3, align 8, !tbaa !37
  store ptr %21, ptr %5, align 8, !tbaa !37
  br label %pmix_hash_table_get_next_elt.exit.thread

pmix_hash_table_get_next_elt.exit.thread:         ; preds = %19, %16, %pmix_hash_table_get_next_elt.exit
  %.0 = phi i32 [ 0, %pmix_hash_table_get_next_elt.exit ], [ -1, %16 ], [ -1, %19 ]
  ret i32 %.0
}